target datalayout = "e-m:e-p270:32:32-p271:32:32-p272:64:64-i64:64-i128:128-f80:128-n8:16:32:64-S128"
target triple = "x86_64-pc-linux-gnu"

%struct.AVFilterContext = type { ptr, ptr, ptr, ptr, ptr, i32, ptr, ptr, i32, ptr, ptr, i32, i32, ptr, ptr, ptr, ptr, i32, ptr, i32, i32 }
%struct.VAAPIVPPContext = type { ptr, ptr, ptr, i32, i32, i32, ptr, ptr, %struct._VARectangle, i32, i32, i32, [10 x i32], i32, i32, ptr, ptr }
%struct._VARectangle = type { i16, i16, i16, i16 }
%struct._VAProcPipelineParameterBuffer = type { i32, ptr, i32, ptr, i32, i32, i32, i32, ptr, i32, ptr, i32, ptr, i32, i32, ptr, i32, ptr, i32, i32, i32, %struct._VAProcColorProperties, %struct._VAProcColorProperties, i32, ptr, [16 x i32] }
%struct._VAProcColorProperties = type { i8, i8, i8, i8, i8, [3 x i8] }
%struct.AVFilterLink = type { ptr, ptr, ptr, ptr, i32, i32, i32, i32, %struct.AVRational, i32, i32, i32, %struct.AVChannelLayout, %struct.AVRational, ptr, i32, %struct.AVFilterFormatsConfig, %struct.AVFilterFormatsConfig }
%struct.AVChannelLayout = type { i32, i32, %union.anon.1, ptr }
%union.anon.1 = type { i64 }
%struct.AVRational = type { i32, i32 }
%struct.AVFilterFormatsConfig = type { ptr, ptr, ptr, ptr, ptr }
%struct.AVFrame = type { [8 x ptr], [8 x i32], ptr, i32, i32, i32, i32, i32, %struct.AVRational, i64, i64, %struct.AVRational, i32, ptr, i32, i32, [8 x ptr], ptr, i32, ptr, i32, i32, i32, i32, i32, i32, i32, i64, ptr, i32, ptr, ptr, i64, i64, i64, i64, ptr, %struct.AVChannelLayout, i64 }

@.str.5 = private unnamed_addr constant [32 x i8] c"Filter input: %s, %ux%u (%ld).\0A\00", align 1
@.str.6 = private unnamed_addr constant [33 x i8] c"Filter output: %s, %ux%u (%ld).\0A\00", align 1

; Function Attrs: nounwind uwtable
define internal i32 @misc_vaapi_filter_frame(ptr noundef %0, ptr noundef %1) #2 {
  %3 = alloca i32, align 4
  %4 = alloca ptr, align 8
  %5 = alloca ptr, align 8
  %6 = alloca ptr, align 8
  %7 = alloca ptr, align 8
  %8 = alloca ptr, align 8
  %9 = alloca ptr, align 8
  %10 = alloca %struct._VAProcPipelineParameterBuffer, align 8
  %11 = alloca i32, align 4
  %12 = alloca i32, align 4
  store ptr %0, ptr %4, align 8, !tbaa !41
  store ptr %1, ptr %5, align 8, !tbaa !43
  call void @llvm.lifetime.start.p0(i64 8, ptr %6) #5
  %13 = load ptr, ptr %4, align 8, !tbaa !41
  %14 = getelementptr inbounds nuw %struct.AVFilterLink, ptr %13, i32 0, i32 2
  %15 = load ptr, ptr %14, align 8, !tbaa !45
  store ptr %15, ptr %6, align 8, !tbaa !4
  call void @llvm.lifetime.start.p0(i64 8, ptr %7) #5
  %16 = load ptr, ptr %6, align 8, !tbaa !4
  %17 = getelementptr inbounds nuw %struct.AVFilterContext, ptr %16, i32 0, i32 7
  %18 = load ptr, ptr %17, align 8, !tbaa !53
  %19 = getelementptr inbounds ptr, ptr %18, i64 0
  %20 = load ptr, ptr %19, align 8, !tbaa !41
  store ptr %20, ptr %7, align 8, !tbaa !41
  call void @llvm.lifetime.start.p0(i64 8, ptr %8) #5
  %21 = load ptr, ptr %6, align 8, !tbaa !4
  %22 = getelementptr inbounds nuw %struct.AVFilterContext, ptr %21, i32 0, i32 9
  %23 = load ptr, ptr %22, align 8, !tbaa !9
  store ptr %23, ptr %8, align 8, !tbaa !22
  call void @llvm.lifetime.start.p0(i64 8, ptr %9) #5
  store ptr null, ptr %9, align 8, !tbaa !43
  call void @llvm.lifetime.start.p0(i64 224, ptr %10) #5
  call void @llvm.lifetime.start.p0(i64 4, ptr %11) #5
  %24 = load ptr, ptr %6, align 8, !tbaa !4
  %25 = load ptr, ptr %5, align 8, !tbaa !43
  %26 = getelementptr inbounds nuw %struct.AVFrame, ptr %25, i32 0, i32 6
  %27 = load i32, ptr %26, align 4, !tbaa !54
  %28 = call ptr @av_get_pix_fmt_name(i32 noundef %27)
  %29 = load ptr, ptr %5, align 8, !tbaa !43
  %30 = getelementptr inbounds nuw %struct.AVFrame, ptr %29, i32 0, i32 3
  %31 = load i32, ptr %30, align 8, !tbaa !60
  %32 = load ptr, ptr %5, align 8, !tbaa !43
  %33 = getelementptr inbounds nuw %struct.AVFrame, ptr %32, i32 0, i32 4
  %34 = load i32, ptr %33, align 4, !tbaa !61
  %35 = load ptr, ptr %5, align 8, !tbaa !43
  %36 = getelementptr inbounds nuw %struct.AVFrame, ptr %35, i32 0, i32 9
  %37 = load i64, ptr %36, align 8, !tbaa !62
  call void (ptr, i32, ptr, ...) @av_log(ptr noundef %24, i32 noundef 48, ptr noundef @.str.5, ptr noundef %28, i32 noundef %31, i32 noundef %34, i64 noundef %37)
  %38 = load ptr, ptr %8, align 8, !tbaa !22
  %39 = getelementptr inbounds nuw %struct.VAAPIVPPContext, ptr %38, i32 0, i32 14
  %40 = load i32, ptr %39, align 8, !tbaa !36
  %41 = icmp ne i32 %40, 0
  br i1 %41, label %42, label %46

42:                                               ; preds = %2
  %43 = load ptr, ptr %7, align 8, !tbaa !41
  %44 = load ptr, ptr %5, align 8, !tbaa !43
  %45 = call i32 @ff_filter_frame(ptr noundef %43, ptr noundef %44)
  store i32 %45, ptr %3, align 4
  store i32 1, ptr %12, align 4
  br label %120

46:                                               ; preds = %2
  %47 = load ptr, ptr %8, align 8, !tbaa !22
  %48 = getelementptr inbounds nuw %struct.VAAPIVPPContext, ptr %47, i32 0, i32 5
  %49 = load i32, ptr %48, align 8, !tbaa !63
  %50 = icmp eq i32 %49, -1
  br i1 %50, label %51, label %52

51:                                               ; preds = %46
  store i32 -22, ptr %3, align 4
  store i32 1, ptr %12, align 4
  br label %120

52:                                               ; preds = %46
  %53 = load ptr, ptr %7, align 8, !tbaa !41
  %54 = load ptr, ptr %8, align 8, !tbaa !22
  %55 = getelementptr inbounds nuw %struct.VAAPIVPPContext, ptr %54, i32 0, i32 10
  %56 = load i32, ptr %55, align 4, !tbaa !64
  %57 = load ptr, ptr %8, align 8, !tbaa !22
  %58 = getelementptr inbounds nuw %struct.VAAPIVPPContext, ptr %57, i32 0, i32 11
  %59 = load i32, ptr %58, align 8, !tbaa !65
  %60 = call ptr @ff_get_video_buffer(ptr noundef %53, i32 noundef %56, i32 noundef %59)
  store ptr %60, ptr %9, align 8, !tbaa !43
  %61 = load ptr, ptr %9, align 8, !tbaa !43
  %62 = icmp ne ptr %61, null
  br i1 %62, label %64, label %63

63:                                               ; preds = %52
  store i32 -12, ptr %11, align 4, !tbaa !66
  br label %118

64:                                               ; preds = %52
  %65 = load ptr, ptr %9, align 8, !tbaa !43
  %66 = load ptr, ptr %5, align 8, !tbaa !43
  %67 = call i32 @av_frame_copy_props(ptr noundef %65, ptr noundef %66)
  store i32 %67, ptr %11, align 4, !tbaa !66
  %68 = load i32, ptr %11, align 4, !tbaa !66
  %69 = icmp slt i32 %68, 0
  br i1 %69, label %70, label %71

70:                                               ; preds = %64
  br label %118

71:                                               ; preds = %64
  %72 = load ptr, ptr %6, align 8, !tbaa !4
  %73 = load ptr, ptr %5, align 8, !tbaa !43
  %74 = load ptr, ptr %9, align 8, !tbaa !43
  %75 = call i32 @ff_vaapi_vpp_init_params(ptr noundef %72, ptr noundef %10, ptr noundef %73, ptr noundef %74)
  store i32 %75, ptr %11, align 4, !tbaa !66
  %76 = load i32, ptr %11, align 4, !tbaa !66
  %77 = icmp slt i32 %76, 0
  br i1 %77, label %78, label %79

78:                                               ; preds = %71
  br label %118

79:                                               ; preds = %71
  %80 = load ptr, ptr %8, align 8, !tbaa !22
  %81 = getelementptr inbounds nuw %struct.VAAPIVPPContext, ptr %80, i32 0, i32 13
  %82 = load i32, ptr %81, align 4, !tbaa !67
  %83 = icmp ne i32 %82, 0
  br i1 %83, label %84, label %93

84:                                               ; preds = %79
  %85 = load ptr, ptr %8, align 8, !tbaa !22
  %86 = getelementptr inbounds nuw %struct.VAAPIVPPContext, ptr %85, i32 0, i32 12
  %87 = getelementptr inbounds [10 x i32], ptr %86, i64 0, i64 0
  %88 = getelementptr inbounds nuw %struct._VAProcPipelineParameterBuffer, ptr %10, i32 0, i32 8
  store ptr %87, ptr %88, align 8, !tbaa !68
  %89 = load ptr, ptr %8, align 8, !tbaa !22
  %90 = getelementptr inbounds nuw %struct.VAAPIVPPContext, ptr %89, i32 0, i32 13
  %91 = load i32, ptr %90, align 4, !tbaa !67
  %92 = getelementptr inbounds nuw %struct._VAProcPipelineParameterBuffer, ptr %10, i32 0, i32 9
  store i32 %91, ptr %92, align 8, !tbaa !75
  br label %93

93:                                               ; preds = %84, %79
  %94 = load ptr, ptr %6, align 8, !tbaa !4
  %95 = load ptr, ptr %9, align 8, !tbaa !43
  %96 = call i32 @ff_vaapi_vpp_render_picture(ptr noundef %94, ptr noundef %10, ptr noundef %95)
  store i32 %96, ptr %11, align 4, !tbaa !66
  %97 = load i32, ptr %11, align 4, !tbaa !66
  %98 = icmp slt i32 %97, 0
  br i1 %98, label %99, label %100

99:                                               ; preds = %93
  br label %118

100:                                              ; preds = %93
  call void @av_frame_free(ptr noundef %5)
  %101 = load ptr, ptr %6, align 8, !tbaa !4
  %102 = load ptr, ptr %9, align 8, !tbaa !43
  %103 = getelementptr inbounds nuw %struct.AVFrame, ptr %102, i32 0, i32 6
  %104 = load i32, ptr %103, align 4, !tbaa !54
  %105 = call ptr @av_get_pix_fmt_name(i32 noundef %104)
  %106 = load ptr, ptr %9, align 8, !tbaa !43
  %107 = getelementptr inbounds nuw %struct.AVFrame, ptr %106, i32 0, i32 3
  %108 = load i32, ptr %107, align 8, !tbaa !60
  %109 = load ptr, ptr %9, align 8, !tbaa !43
  %110 = getelementptr inbounds nuw %struct.AVFrame, ptr %109, i32 0, i32 4
  %111 = load i32, ptr %110, align 4, !tbaa !61
  %112 = load ptr, ptr %9, align 8, !tbaa !43
  %113 = getelementptr inbounds nuw %struct.AVFrame, ptr %112, i32 0, i32 9
  %114 = load i64, ptr %113, align 8, !tbaa !62
  call void (ptr, i32, ptr, ...) @av_log(ptr noundef %101, i32 noundef 48, ptr noundef @.str.6, ptr noundef %105, i32 noundef %108, i32 noundef %111, i64 noundef %114)
  %115 = load ptr, ptr %7, align 8, !tbaa !41
  %116 = load ptr, ptr %9, align 8, !tbaa !43
  %117 = call i32 @ff_filter_frame(ptr noundef %115, ptr noundef %116)
  store i32 %117, ptr %3, align 4
  store i32 1, ptr %12, align 4
  br label %120

118:                                              ; preds = %99, %78, %70, %63
  call void @av_frame_free(ptr noundef %5)
  call void @av_frame_free(ptr noundef %9)
  %119 = load i32, ptr %11, align 4, !tbaa !66
  store i32 %119, ptr %3, align 4
  store i32 1, ptr %12, align 4
  br label %120

120:                                              ; preds = %118, %100, %51, %42
  call void @llvm.lifetime.end.p0(i64 4, ptr %11) #5
  call void @llvm.lifetime.end.p0(i64 224, ptr %10) #5
  call void @llvm.lifetime.end.p0(i64 8, ptr %9) #5
  call void @llvm.lifetime.end.p0(i64 8, ptr %8) #5
  call void @llvm.lifetime.end.p0(i64 8, ptr %7) #5
  call void @llvm.lifetime.end.p0(i64 8, ptr %6) #5
  %121 = load i32, ptr %3, align 4
  ret i32 %121
}