; Function Attrs: nounwind uwtable
define internal i32 @misc_vaapi_filter_frame(ptr noundef readonly captures(none) %0, ptr noundef %1) #2 {
  %3 = alloca ptr, align 8
  %4 = alloca ptr, align 8
  %5 = alloca %struct._VAProcPipelineParameterBuffer, align 8
  store ptr %1, ptr %3, align 8, !tbaa !33
  %6 = getelementptr inbounds nuw i8, ptr %0, i64 16
  %7 = load ptr, ptr %6, align 8, !tbaa !35
  %8 = getelementptr inbounds nuw i8, ptr %7, i64 56
  %9 = load ptr, ptr %8, align 8, !tbaa !44
  %10 = load ptr, ptr %9, align 8, !tbaa !45
  %11 = getelementptr inbounds nuw i8, ptr %7, i64 72
  %12 = load ptr, ptr %11, align 8, !tbaa !4
  call void @llvm.lifetime.start.p0(i64 8, ptr nonnull %4) #5
  call void @llvm.lifetime.start.p0(i64 224, ptr nonnull %5) #5
  %13 = getelementptr inbounds nuw i8, ptr %1, i64 116
  %14 = load i32, ptr %13, align 4, !tbaa !47
  %15 = tail call ptr @av_get_pix_fmt_name(i32 noundef %14) #5
  %16 = getelementptr inbounds nuw i8, ptr %1, i64 104
  %17 = load i32, ptr %16, align 8, !tbaa !53
  %18 = getelementptr inbounds nuw i8, ptr %1, i64 108
  %19 = load i32, ptr %18, align 4, !tbaa !54
  %20 = getelementptr inbounds nuw i8, ptr %1, i64 136
  %21 = load i64, ptr %20, align 8, !tbaa !55
  tail call void (ptr, i32, ptr, ...) @av_log(ptr noundef %7, i32 noundef 48, ptr noundef nonnull @.str.5, ptr noundef %15, i32 noundef %17, i32 noundef %19, i64 noundef %21) #5
  %22 = getelementptr inbounds nuw i8, ptr %12, i64 120
  %23 = load i32, ptr %22, align 8, !tbaa !30
  %.not = icmp eq i32 %23, 0
  br i1 %.not, label %26, label %24

24:                                               ; preds = %2
  %25 = tail call i32 @ff_filter_frame(ptr noundef %10, ptr noundef nonnull %1) #5
  br label %64

26:                                               ; preds = %2
  %27 = getelementptr inbounds nuw i8, ptr %12, i64 32
  %28 = load i32, ptr %27, align 8, !tbaa !56
  %29 = icmp eq i32 %28, -1
  br i1 %29, label %64, label %30

30:                                               ; preds = %26
  %31 = getelementptr inbounds nuw i8, ptr %12, i64 68
  %32 = load i32, ptr %31, align 4, !tbaa !57
  %33 = getelementptr inbounds nuw i8, ptr %12, i64 72
  %34 = load i32, ptr %33, align 8, !tbaa !58
  %35 = tail call ptr @ff_get_video_buffer(ptr noundef %10, i32 noundef %32, i32 noundef %34) #5
  store ptr %35, ptr %4, align 8, !tbaa !33
  %.not26 = icmp eq ptr %35, null
  br i1 %.not26, label %63, label %36

36:                                               ; preds = %30
  %37 = tail call i32 @av_frame_copy_props(ptr noundef nonnull %35, ptr noundef nonnull %1) #5
  %38 = icmp slt i32 %37, 0
  br i1 %38, label %63, label %39

39:                                               ; preds = %36
  %40 = call i32 @ff_vaapi_vpp_init_params(ptr noundef nonnull %7, ptr noundef nonnull %5, ptr noundef nonnull %1, ptr noundef nonnull %35) #5
  %41 = icmp slt i32 %40, 0
  br i1 %41, label %63, label %42

42:                                               ; preds = %39
  %43 = getelementptr inbounds nuw i8, ptr %12, i64 116
  %44 = load i32, ptr %43, align 4, !tbaa !59
  %.not27 = icmp eq i32 %44, 0
  br i1 %.not27, label %49, label %45

45:                                               ; preds = %42
  %46 = getelementptr inbounds nuw i8, ptr %12, i64 76
  %47 = getelementptr inbounds nuw i8, ptr %5, i64 48
  store ptr %46, ptr %47, align 8, !tbaa !60
  %48 = getelementptr inbounds nuw i8, ptr %5, i64 56
  store i32 %44, ptr %48, align 8, !tbaa !67
  br label %49

49:                                               ; preds = %45, %42
  %50 = call i32 @ff_vaapi_vpp_render_picture(ptr noundef nonnull %7, ptr noundef nonnull %5, ptr noundef nonnull %35) #5
  %51 = icmp slt i32 %50, 0
  br i1 %51, label %63, label %52

52:                                               ; preds = %49
  call void @av_frame_free(ptr noundef nonnull %3) #5
  %53 = getelementptr inbounds nuw i8, ptr %35, i64 116
  %54 = load i32, ptr %53, align 4, !tbaa !47
  %55 = call ptr @av_get_pix_fmt_name(i32 noundef %54) #5
  %56 = getelementptr inbounds nuw i8, ptr %35, i64 104
  %57 = load i32, ptr %56, align 8, !tbaa !53
  %58 = getelementptr inbounds nuw i8, ptr %35, i64 108
  %59 = load i32, ptr %58, align 4, !tbaa !54
  %60 = getelementptr inbounds nuw i8, ptr %35, i64 136
  %61 = load i64, ptr %60, align 8, !tbaa !55
  call void (ptr, i32, ptr, ...) @av_log(ptr noundef nonnull %7, i32 noundef 48, ptr noundef nonnull @.str.6, ptr noundef %55, i32 noundef %57, i32 noundef %59, i64 noundef %61) #5
  %62 = call i32 @ff_filter_frame(ptr noundef %10, ptr noundef nonnull %35) #5
  br label %64

63:                                               ; preds = %30, %49, %39, %36
  %.0 = phi i32 [ %37, %36 ], [ %40, %39 ], [ %50, %49 ], [ -12, %30 ]
  call void @av_frame_free(ptr noundef nonnull %3) #5
  call void @av_frame_free(ptr noundef nonnull %4) #5
  br label %64

64:                                               ; preds = %26, %63, %52, %24
  %.021 = phi i32 [ %25, %24 ], [ %.0, %63 ], [ %62, %52 ], [ -22, %26 ]
  call void @llvm.lifetime.end.p0(i64 224, ptr nonnull %5) #5
  call void @llvm.lifetime.end.p0(i64 8, ptr nonnull %4) #5
  ret i32 %.021
}